; Function Attrs: mustprogress nofree norecurse nosync nounwind willreturn memory(readwrite, argmem: write, inaccessiblemem: none) uwtable
define dso_local nonnull ptr @get_pathname() local_unnamed_addr #0 {
  %1 = load i32, ptr @get_pathname.index, align 4, !tbaa !4
  %2 = zext nneg i32 %1 to i64
  %3 = getelementptr inbounds nuw [4 x %struct.strbuf], ptr @get_pathname.pathname_array, i64 0, i64 %2
  %4 = add nuw nsw i32 %1, 1
  %5 = and i32 %4, 3
  store i32 %5, ptr @get_pathname.index, align 4, !tbaa !4
  %6 = getelementptr inbounds nuw i8, ptr %3, i64 8
  store i64 0, ptr %6, align 8, !tbaa !8
  %7 = getelementptr inbounds nuw i8, ptr %3, i64 16
  %8 = load ptr, ptr %7, align 8, !tbaa !13
  %.not9.i = icmp eq ptr %8, @strbuf_slopbuf
  br i1 %.not9.i, label %strbuf_setlen.exit, label %9

9:                                                ; preds = %0
  store i8 0, ptr %8, align 1, !tbaa !14
  br label %strbuf_setlen.exit

strbuf_setlen.exit:                               ; preds = %0, %9
  ret ptr %3
}